; Function Attrs: mustprogress uwtable
define hidden void @_ZNK7zstring7reverseEv(ptr dead_on_unwind noalias writable sret(%class.zstring) align 8 %0, ptr noundef nonnull readonly align 8 captures(none) dereferenceable(80) %1) local_unnamed_addr #3 align 2 personality ptr @__gxx_personality_v0 {
  %3 = getelementptr inbounds nuw i8, ptr %0, i64 16
  store ptr %3, ptr %0, align 8, !tbaa !13
  %4 = getelementptr inbounds nuw i8, ptr %0, i64 8
  store i32 0, ptr %4, align 8, !tbaa !16
  %5 = getelementptr inbounds nuw i8, ptr %0, i64 12
  store i32 16, ptr %5, align 4, !tbaa !17
  %6 = getelementptr inbounds nuw i8, ptr %1, i64 8
  %7 = load i32, ptr %6, align 8, !tbaa !16
  %.not6 = icmp eq i32 %7, 0
  br i1 %.not6, label %._crit_edge, label %.lr.ph.preheader

.lr.ph.preheader:                                 ; preds = %2
  %8 = zext i32 %7 to i64
  br label %.lr.ph

9:                                                ; preds = %23, %16
  %10 = landingpad { ptr, i32 }
          cleanup
  tail call void @_ZN7zstringD2Ev(ptr noundef nonnull align 8 dereferenceable(80) %0) #20
  resume { ptr, i32 } %10

.lr.ph:                                           ; preds = %.lr.ph.preheader, %_ZN6bufferIjLb1ELj16EE9push_backERKj.exit
  %.pre.i = phi ptr [ %3, %.lr.ph.preheader ], [ %.pre.i10, %_ZN6bufferIjLb1ELj16EE9push_backERKj.exit ]
  %11 = phi i32 [ 0, %.lr.ph.preheader ], [ %33, %_ZN6bufferIjLb1ELj16EE9push_backERKj.exit ]
  %indvars.iv = phi i64 [ %8, %.lr.ph.preheader ], [ %12, %_ZN6bufferIjLb1ELj16EE9push_backERKj.exit ]
  %12 = add nsw i64 %indvars.iv, -1
  %13 = load ptr, ptr %1, align 8, !tbaa !13
  %14 = getelementptr inbounds nuw i32, ptr %13, i64 %12
  %15 = load i32, ptr %5, align 4, !tbaa !17
  %.not.i = icmp ult i32 %11, %15
  br i1 %.not.i, label %_ZN6bufferIjLb1ELj16EE9push_backERKj.exit, label %16

16:                                               ; preds = %.lr.ph
  %17 = shl i32 %15, 1
  %18 = zext i32 %17 to i64
  %19 = shl nuw nsw i64 %18, 2
  %20 = invoke noalias noundef ptr @_ZN6memory8allocateEm(i64 noundef %19)
          to label %.noexc unwind label %9

.noexc:                                           ; preds = %16
  %21 = load i32, ptr %4, align 8, !tbaa !16
  %.not.i.i = icmp eq i32 %21, 0
  %.pre.i.i = load ptr, ptr %0, align 8, !tbaa !13
  br i1 %.not.i.i, label %._crit_edge.i.i, label %.lr.ph.i.i

.lr.ph.i.i:                                       ; preds = %.noexc
  %wide.trip.count.i.i = zext i32 %21 to i64
  br label %24

._crit_edge.i.i:                                  ; preds = %24, %.noexc
  %.not.i.i.i = icmp eq ptr %.pre.i.i, %3
  %22 = icmp eq ptr %.pre.i.i, null
  %or.cond.i.i.i = or i1 %.not.i.i.i, %22
  br i1 %or.cond.i.i.i, label %_ZN6bufferIjLb1ELj16EE6expandEv.exit.i, label %23

23:                                               ; preds = %._crit_edge.i.i
  invoke void @_ZN6memory10deallocateEPv(ptr noundef nonnull %.pre.i.i)
          to label %.noexc5 unwind label %9

.noexc5:                                          ; preds = %23
  %.pre2.pre.i = load i32, ptr %4, align 8, !tbaa !16
  br label %_ZN6bufferIjLb1ELj16EE6expandEv.exit.i

24:                                               ; preds = %24, %.lr.ph.i.i
  %indvars.iv.i.i = phi i64 [ 0, %.lr.ph.i.i ], [ %indvars.iv.next.i.i, %24 ]
  %25 = getelementptr inbounds nuw i32, ptr %20, i64 %indvars.iv.i.i
  %26 = getelementptr inbounds nuw i32, ptr %.pre.i.i, i64 %indvars.iv.i.i
  %27 = load i32, ptr %26, align 4, !tbaa !9
  store i32 %27, ptr %25, align 4, !tbaa !9
  %indvars.iv.next.i.i = add nuw nsw i64 %indvars.iv.i.i, 1
  %exitcond.not.i.i = icmp eq i64 %indvars.iv.next.i.i, %wide.trip.count.i.i
  br i1 %exitcond.not.i.i, label %._crit_edge.i.i, label %24, !llvm.loop !18

_ZN6bufferIjLb1ELj16EE6expandEv.exit.i:           ; preds = %.noexc5, %._crit_edge.i.i
  %.pre2.i = phi i32 [ %21, %._crit_edge.i.i ], [ %.pre2.pre.i, %.noexc5 ]
  store ptr %20, ptr %0, align 8, !tbaa !13
  store i32 %17, ptr %5, align 4, !tbaa !17
  br label %_ZN6bufferIjLb1ELj16EE9push_backERKj.exit

_ZN6bufferIjLb1ELj16EE9push_backERKj.exit:        ; preds = %.lr.ph, %_ZN6bufferIjLb1ELj16EE6expandEv.exit.i
  %.pre.i10 = phi ptr [ %20, %_ZN6bufferIjLb1ELj16EE6expandEv.exit.i ], [ %.pre.i, %.lr.ph ]
  %28 = phi i32 [ %.pre2.i, %_ZN6bufferIjLb1ELj16EE6expandEv.exit.i ], [ %11, %.lr.ph ]
  %29 = zext i32 %28 to i64
  %30 = getelementptr inbounds nuw i32, ptr %.pre.i10, i64 %29
  %31 = load i32, ptr %14, align 4, !tbaa !9
  store i32 %31, ptr %30, align 4, !tbaa !9
  %32 = load i32, ptr %4, align 8, !tbaa !16
  %33 = add i32 %32, 1
  store i32 %33, ptr %4, align 8, !tbaa !16
  %.not.wide = icmp eq i64 %12, 0
  br i1 %.not.wide, label %._crit_edge, label %.lr.ph

._crit_edge:                                      ; preds = %_ZN6bufferIjLb1ELj16EE9push_backERKj.exit, %2
  ret void
}